; Function Attrs: mustprogress noreturn uwtable
define hidden void @_ZN4nori4Warp21squareToUniformSphereERKNS_6TPointIfLi2EEE(ptr dead_on_unwind noalias nocapture readnone sret(%"struct.nori::TVector") align 4 %0, ptr nocapture noundef nonnull readnone align 4 dereferenceable(8) %1) local_unnamed_addr #5 align 2 personality ptr @__gxx_personality_v0 {
  %3 = tail call ptr @__cxa_allocate_exception(i64 16) #11
  invoke void @_ZN4nori13NoriExceptionC2IJEEEPKcDpRKT_(ptr noundef nonnull align 8 dereferenceable(16) %3, ptr noundef nonnull @.str.4)
          to label %4 unwind label %5

4:                                                ; preds = %2
  tail call void @__cxa_throw(ptr nonnull %3, ptr nonnull @_ZTIN4nori13NoriExceptionE, ptr nonnull @_ZN4nori13NoriExceptionD2Ev) #12
  unreachable

5:                                                ; preds = %2
  %6 = landingpad { ptr, i32 }
          cleanup
  tail call void @__cxa_free_exception(ptr %3) #11
  resume { ptr, i32 } %6
}